; ModuleID = '53/115.c'
source_filename = "53/115.c"
target datalayout = "e-m:e-p270:32:32-p271:32:32-p272:64:64-i64:64-f80:128-n8:16:32:64-S128"
target triple = "x86_64-pc-linux-gnu"

@.str = private unnamed_addr constant [5 x i8] c"%d%d\00", align 1
@.str.1 = private unnamed_addr constant [3 x i8] c"%d\00", align 1
@.str.2 = private unnamed_addr constant [4 x i8] c"%d,\00", align 1
@.str.3 = private unnamed_addr constant [4 x i8] c"%d\0A\00", align 1

; Function Attrs: noinline nounwind uwtable
define dso_local i32 @main() #0 {
  %1 = alloca i32, align 4
  %2 = alloca i32, align 4
  %3 = alloca [300 x i32], align 16
  %4 = alloca i32, align 4
  %5 = alloca i32*, align 8
  %6 = alloca i32, align 4
  store i32 0, i32* %1, align 4
  %7 = getelementptr inbounds [300 x i32], [300 x i32]* %3, i64 0, i64 0
  %8 = call i32 (i8*, ...) @__isoc99_scanf(i8* getelementptr inbounds ([5 x i8], [5 x i8]* @.str, i64 0, i64 0), i32* %2, i32* %7)
  %9 = load i32, i32* %2, align 4
  %10 = add nsw i32 %9, -1
  store i32 %10, i32* %2, align 4
  %11 = getelementptr inbounds [300 x i32], [300 x i32]* %3, i64 0, i64 0
  store i32* %11, i32** %5, align 8
  br label %12

12:                                               ; preds = %28, %0
  %13 = load i32, i32* %2, align 4
  %14 = icmp sgt i32 %13, 0
  br i1 %14, label %15, label %31

15:                                               ; preds = %12
  %16 = call i32 (i8*, ...) @__isoc99_scanf(i8* getelementptr inbounds ([3 x i8], [3 x i8]* @.str.1, i64 0, i64 0), i32* %4)
  %17 = getelementptr inbounds [300 x i32], [300 x i32]* %3, i64 0, i64 0
  %18 = load i32*, i32** %5, align 8
  %19 = load i32, i32* %4, align 4
  %20 = call i32 @test(i32* %17, i32* %18, i32 %19)
  %21 = icmp ne i32 %20, 0
  br i1 %21, label %22, label %27

22:                                               ; preds = %15
  %23 = load i32*, i32** %5, align 8
  %24 = getelementptr inbounds i32, i32* %23, i32 1
  store i32* %24, i32** %5, align 8
  %25 = load i32, i32* %4, align 4
  %26 = load i32*, i32** %5, align 8
  store i32 %25, i32* %26, align 4
  br label %27

27:                                               ; preds = %22, %15
  br label %28

28:                                               ; preds = %27
  %29 = load i32, i32* %2, align 4
  %30 = add nsw i32 %29, -1
  store i32 %30, i32* %2, align 4
  br label %12

31:                                               ; preds = %12
  store i32 0, i32* %6, align 4
  br label %32

32:                                               ; preds = %46, %31
  %33 = getelementptr inbounds [300 x i32], [300 x i32]* %3, i64 0, i64 0
  %34 = load i32, i32* %6, align 4
  %35 = sext i32 %34 to i64
  %36 = getelementptr inbounds i32, i32* %33, i64 %35
  %37 = load i32*, i32** %5, align 8
  %38 = icmp ult i32* %36, %37
  br i1 %38, label %39, label %49

39:                                               ; preds = %32
  %40 = getelementptr inbounds [300 x i32], [300 x i32]* %3, i64 0, i64 0
  %41 = load i32, i32* %6, align 4
  %42 = sext i32 %41 to i64
  %43 = getelementptr inbounds i32, i32* %40, i64 %42
  %44 = load i32, i32* %43, align 4
  %45 = call i32 (i8*, ...) @printf(i8* getelementptr inbounds ([4 x i8], [4 x i8]* @.str.2, i64 0, i64 0), i32 %44)
  br label %46

46:                                               ; preds = %39
  %47 = load i32, i32* %6, align 4
  %48 = add nsw i32 %47, 1
  store i32 %48, i32* %6, align 4
  br label %32

49:                                               ; preds = %32
  %50 = load i32*, i32** %5, align 8
  %51 = load i32, i32* %50, align 4
  %52 = call i32 (i8*, ...) @printf(i8* getelementptr inbounds ([4 x i8], [4 x i8]* @.str.3, i64 0, i64 0), i32 %51)
  ret i32 0
}

declare dso_local i32 @__isoc99_scanf(i8*, ...) #1

; Function Attrs: noinline nounwind uwtable
define dso_local i32 @test(i32* %0, i32* %1, i32 %2) #0 {
  %4 = alloca i32, align 4
  %5 = alloca i32*, align 8
  %6 = alloca i32*, align 8
  %7 = alloca i32, align 4
  store i32* %0, i32** %5, align 8
  store i32* %1, i32** %6, align 8
  store i32 %2, i32* %7, align 4
  br label %8

8:                                                ; preds = %19, %3
  %9 = load i32*, i32** %6, align 8
  %10 = load i32*, i32** %5, align 8
  %11 = icmp uge i32* %9, %10
  br i1 %11, label %12, label %22

12:                                               ; preds = %8
  %13 = load i32*, i32** %6, align 8
  %14 = load i32, i32* %13, align 4
  %15 = load i32, i32* %7, align 4
  %16 = icmp eq i32 %14, %15
  br i1 %16, label %17, label %18

17:                                               ; preds = %12
  store i32 0, i32* %4, align 4
  br label %23

18:                                               ; preds = %12
  br label %19

19:                                               ; preds = %18
  %20 = load i32*, i32** %6, align 8
  %21 = getelementptr inbounds i32, i32* %20, i32 -1
  store i32* %21, i32** %6, align 8
  br label %8

22:                                               ; preds = %8
  store i32 1, i32* %4, align 4
  br label %23

23:                                               ; preds = %22, %17
  %24 = load i32, i32* %4, align 4
  ret i32 %24
}

declare dso_local i32 @printf(i8*, ...) #1


!llvm.module.flags = !{!0}
!llvm.ident = !{!1}

!0 = !{i32 1, !"wchar_size", i32 4}
!1 = !{!"clang version 10.0.0-4ubuntu1 "}
